(lp0
(dp1
S'url'
p2
Vhttp://www.ksl.com/?nid=125&sid=14777441
p3
sS'source'
p4
Vwww.ksl.com
p5
sS'score'
p6
I0
sa(dp7
g2
Vhttp://in.reuters.com/article/2013/09/12/syria-crisis-idINDEE98A0FP20130912
p8
sg4
Vin.reuters.com
p9
sg6
I4
sa(dp10
g2
Vhttp://nbcpolitics.nbcnews.com/_news/2013/09/01/20279783-kerry-samples-from-syria-tested-positive-for-sarin?lite
p11
sg4
Vnbcpolitics.nbcnews.com
p12
sg6
I69
sa(dp13
g2
Vhttp://www.huffingtonpost.com/2013/09/10/obama-syria-speech-live_n_3902294.html
p14
sg4
Vwww.huffingtonpost.com
p15
sg6
I82
sa(dp16
g2
Vhttp://www.huffingtonpost.ca/2013/08/28/syria-chemical-weapons_n_3828476.html
p17
sg4
Vwww.huffingtonpost.ca
p18
sg6
I87
sa.