(lp0
(dp1
S'url'
p2
Vhttp://www.usatoday.com/story/sports/nfl/2013/07/17/players-emr-medical-records-online-ipads-concussions/2528111/
p3
sS'source'
p4
Vwww.usatoday.com
p5
sS'score'
p6
I66
sa(dp7
g2
Vhttp://jacksonville.com/news/metro/2013-02-14/story/fact-check-does-health-care-law-mandate-implanted-microchip
p8
sg4
Vjacksonville.com
p9
sg6
I94
sa(dp10
g2
Vhttp://www.libertynewsonline.com/article_301_31756.php
p11
sg4
Vwww.libertynewsonline.com
p12
sg6
I96
sa(dp13
g2
Vhttp://www.chattanoogan.com/2010/3/25/171913/Obama-Health-Care-Bill-To-Include.aspx
p14
sg4
Vwww.chattanoogan.com
p15
sg6
I99
sa(dp16
g2
Vhttp://www.renewamerica.com/columns/janak/080514
p17
sg4
Vwww.renewamerica.com
p18
sg6
I99
sa.