(lp0
(dp1
S'url'
p2
Vhttp://www.meguiar.addr.com/end_times/HEALTH_CARE_MICRO_CHIP.htm
p3
sS'source'
p4
Vwww.meguiar.addr.com
p5
sS'score'
p6
I76
sa(dp7
g2
Vhttp://phys.org/news/2013-09-chip-memory-device-future.html
p8
sg4
Vphys.org
p9
sg6
I78
sa(dp10
g2
Vhttp://www.snopes.com/politics/medical/microchip.asp
p11
sg4
Vwww.snopes.com
p12
sg6
I85
sa(dp13
g2
Vhttp://planet.infowars.com/health/obamacare-obamatax-makes-rfid-chip-implants-mandatory-march-23-2013-via-sodahead-com
p14
sg4
Vplanet.infowars.com
p15
sg6
I92
sa(dp16
g2
Vhttp://theperpetualview.wordpress.com/tag/chip-obamacare-h-r-4872/
p17
sg4
Vtheperpetualview.wordpress.com
p18
sg6
I95
sa.