(lp0
(dp1
S'url'
p2
Vhttp://worldnews.nbcnews.com/_news/2013/08/28/20227083-obama-on-syria-i-have-not-made-a-decision?lite
p3
sS'source'
p4
Vworldnews.nbcnews.com
p5
sS'score'
p6
I4
sa(dp7
g2
Vhttp://www.independent.co.uk/voices/comment/gas-missiles-were-not-sold-to-syria-8831792.html
p8
sg4
Vwww.independent.co.uk
p9
sg6
I12
sa(dp10
g2
Vhttp://nbcpolitics.nbcnews.com/_news/2013/09/01/20279783-kerry-samples-from-syria-tested-positive-for-sarin?lite
p11
sg4
Vnbcpolitics.nbcnews.com
p12
sg6
I69
sa(dp13
g2
Vhttp://www.heraldextra.com/news/opinion/demilitarizing-syria-s-poison-gas-will-be-extrememly-difficult/article_9132b130-2edf-5641-8bb6-1ff5944e890f.html
p14
sg4
Vwww.heraldextra.com
p15
sg6
I81
sa(dp16
g2
Vhttp://www.huffingtonpost.ca/2013/08/28/syria-chemical-weapons_n_3828476.html
p17
sg4
Vwww.huffingtonpost.ca
p18
sg6
I87
sa.